
auth_overflow2:     file format elf32-i386


Disassembly of section .init:

08048378 <_init>:
 8048378:	53                   	push   %ebx
 8048379:	83 ec 08             	sub    $0x8,%esp
 804837c:	e8 df 00 00 00       	call   8048460 <__x86.get_pc_thunk.bx>
 8048381:	81 c3 7f 1c 00 00    	add    $0x1c7f,%ebx
 8048387:	8b 83 fc ff ff ff    	mov    -0x4(%ebx),%eax
 804838d:	85 c0                	test   %eax,%eax
 804838f:	74 05                	je     8048396 <_init+0x1e>
 8048391:	e8 6a 00 00 00       	call   8048400 <__gmon_start__@plt>
 8048396:	83 c4 08             	add    $0x8,%esp
 8048399:	5b                   	pop    %ebx
 804839a:	c3                   	ret    

Disassembly of section .plt:

080483a0 <strcmp@plt-0x10>:
 80483a0:	ff 35 04 a0 04 08    	pushl  0x804a004
 80483a6:	ff 25 08 a0 04 08    	jmp    *0x804a008
 80483ac:	00 00                	add    %al,(%eax)
	...

080483b0 <strcmp@plt>:
 80483b0:	ff 25 0c a0 04 08    	jmp    *0x804a00c
 80483b6:	68 00 00 00 00       	push   $0x0
 80483bb:	e9 e0 ff ff ff       	jmp    80483a0 <_init+0x28>

080483c0 <printf@plt>:
 80483c0:	ff 25 10 a0 04 08    	jmp    *0x804a010
 80483c6:	68 08 00 00 00       	push   $0x8
 80483cb:	e9 d0 ff ff ff       	jmp    80483a0 <_init+0x28>

080483d0 <__stack_chk_fail@plt>:
 80483d0:	ff 25 14 a0 04 08    	jmp    *0x804a014
 80483d6:	68 10 00 00 00       	push   $0x10
 80483db:	e9 c0 ff ff ff       	jmp    80483a0 <_init+0x28>

080483e0 <strcpy@plt>:
 80483e0:	ff 25 18 a0 04 08    	jmp    *0x804a018
 80483e6:	68 18 00 00 00       	push   $0x18
 80483eb:	e9 b0 ff ff ff       	jmp    80483a0 <_init+0x28>

080483f0 <puts@plt>:
 80483f0:	ff 25 1c a0 04 08    	jmp    *0x804a01c
 80483f6:	68 20 00 00 00       	push   $0x20
 80483fb:	e9 a0 ff ff ff       	jmp    80483a0 <_init+0x28>

08048400 <__gmon_start__@plt>:
 8048400:	ff 25 20 a0 04 08    	jmp    *0x804a020
 8048406:	68 28 00 00 00       	push   $0x28
 804840b:	e9 90 ff ff ff       	jmp    80483a0 <_init+0x28>

08048410 <exit@plt>:
 8048410:	ff 25 24 a0 04 08    	jmp    *0x804a024
 8048416:	68 30 00 00 00       	push   $0x30
 804841b:	e9 80 ff ff ff       	jmp    80483a0 <_init+0x28>

08048420 <__libc_start_main@plt>:
 8048420:	ff 25 28 a0 04 08    	jmp    *0x804a028
 8048426:	68 38 00 00 00       	push   $0x38
 804842b:	e9 70 ff ff ff       	jmp    80483a0 <_init+0x28>

Disassembly of section .text:

08048430 <_start>:
 8048430:	31 ed                	xor    %ebp,%ebp
 8048432:	5e                   	pop    %esi
 8048433:	89 e1                	mov    %esp,%ecx
 8048435:	83 e4 f0             	and    $0xfffffff0,%esp
 8048438:	50                   	push   %eax
 8048439:	54                   	push   %esp
 804843a:	52                   	push   %edx
 804843b:	68 90 86 04 08       	push   $0x8048690
 8048440:	68 20 86 04 08       	push   $0x8048620
 8048445:	51                   	push   %ecx
 8048446:	56                   	push   %esi
 8048447:	68 af 85 04 08       	push   $0x80485af
 804844c:	e8 cf ff ff ff       	call   8048420 <__libc_start_main@plt>
 8048451:	f4                   	hlt    
 8048452:	66 90                	xchg   %ax,%ax
 8048454:	66 90                	xchg   %ax,%ax
 8048456:	66 90                	xchg   %ax,%ax
 8048458:	66 90                	xchg   %ax,%ax
 804845a:	66 90                	xchg   %ax,%ax
 804845c:	66 90                	xchg   %ax,%ax
 804845e:	66 90                	xchg   %ax,%ax

08048460 <__x86.get_pc_thunk.bx>:
 8048460:	8b 1c 24             	mov    (%esp),%ebx
 8048463:	c3                   	ret    
 8048464:	66 90                	xchg   %ax,%ax
 8048466:	66 90                	xchg   %ax,%ax
 8048468:	66 90                	xchg   %ax,%ax
 804846a:	66 90                	xchg   %ax,%ax
 804846c:	66 90                	xchg   %ax,%ax
 804846e:	66 90                	xchg   %ax,%ax

08048470 <deregister_tm_clones>:
 8048470:	b8 37 a0 04 08       	mov    $0x804a037,%eax
 8048475:	2d 34 a0 04 08       	sub    $0x804a034,%eax
 804847a:	83 f8 06             	cmp    $0x6,%eax
 804847d:	77 01                	ja     8048480 <deregister_tm_clones+0x10>
 804847f:	c3                   	ret    
 8048480:	b8 00 00 00 00       	mov    $0x0,%eax
 8048485:	85 c0                	test   %eax,%eax
 8048487:	74 f6                	je     804847f <deregister_tm_clones+0xf>
 8048489:	55                   	push   %ebp
 804848a:	89 e5                	mov    %esp,%ebp
 804848c:	83 ec 18             	sub    $0x18,%esp
 804848f:	c7 04 24 34 a0 04 08 	movl   $0x804a034,(%esp)
 8048496:	ff d0                	call   *%eax
 8048498:	c9                   	leave  
 8048499:	c3                   	ret    
 804849a:	8d b6 00 00 00 00    	lea    0x0(%esi),%esi

080484a0 <register_tm_clones>:
 80484a0:	b8 34 a0 04 08       	mov    $0x804a034,%eax
 80484a5:	2d 34 a0 04 08       	sub    $0x804a034,%eax
 80484aa:	c1 f8 02             	sar    $0x2,%eax
 80484ad:	89 c2                	mov    %eax,%edx
 80484af:	c1 ea 1f             	shr    $0x1f,%edx
 80484b2:	01 d0                	add    %edx,%eax
 80484b4:	d1 f8                	sar    %eax
 80484b6:	75 01                	jne    80484b9 <register_tm_clones+0x19>
 80484b8:	c3                   	ret    
 80484b9:	ba 00 00 00 00       	mov    $0x0,%edx
 80484be:	85 d2                	test   %edx,%edx
 80484c0:	74 f6                	je     80484b8 <register_tm_clones+0x18>
 80484c2:	55                   	push   %ebp
 80484c3:	89 e5                	mov    %esp,%ebp
 80484c5:	83 ec 18             	sub    $0x18,%esp
 80484c8:	89 44 24 04          	mov    %eax,0x4(%esp)
 80484cc:	c7 04 24 34 a0 04 08 	movl   $0x804a034,(%esp)
 80484d3:	ff d2                	call   *%edx
 80484d5:	c9                   	leave  
 80484d6:	c3                   	ret    
 80484d7:	89 f6                	mov    %esi,%esi
 80484d9:	8d bc 27 00 00 00 00 	lea    0x0(%edi,%eiz,1),%edi

080484e0 <__do_global_dtors_aux>:
 80484e0:	80 3d 34 a0 04 08 00 	cmpb   $0x0,0x804a034
 80484e7:	75 13                	jne    80484fc <__do_global_dtors_aux+0x1c>
 80484e9:	55                   	push   %ebp
 80484ea:	89 e5                	mov    %esp,%ebp
 80484ec:	83 ec 08             	sub    $0x8,%esp
 80484ef:	e8 7c ff ff ff       	call   8048470 <deregister_tm_clones>
 80484f4:	c6 05 34 a0 04 08 01 	movb   $0x1,0x804a034
 80484fb:	c9                   	leave  
 80484fc:	f3 c3                	repz ret 
 80484fe:	66 90                	xchg   %ax,%ax

08048500 <frame_dummy>:
 8048500:	a1 10 9f 04 08       	mov    0x8049f10,%eax
 8048505:	85 c0                	test   %eax,%eax
 8048507:	74 1f                	je     8048528 <frame_dummy+0x28>
 8048509:	b8 00 00 00 00       	mov    $0x0,%eax
 804850e:	85 c0                	test   %eax,%eax
 8048510:	74 16                	je     8048528 <frame_dummy+0x28>
 8048512:	55                   	push   %ebp
 8048513:	89 e5                	mov    %esp,%ebp
 8048515:	83 ec 18             	sub    $0x18,%esp
 8048518:	c7 04 24 10 9f 04 08 	movl   $0x8049f10,(%esp)
 804851f:	ff d0                	call   *%eax
 8048521:	c9                   	leave  
 8048522:	e9 79 ff ff ff       	jmp    80484a0 <register_tm_clones>
 8048527:	90                   	nop
 8048528:	e9 73 ff ff ff       	jmp    80484a0 <register_tm_clones>

0804852d <check_auth>:
 804852d:	55                   	push   %ebp
 804852e:	89 e5                	mov    %esp,%ebp
 8048530:	83 ec 38             	sub    $0x38,%esp
 8048533:	8b 45 08             	mov    0x8(%ebp),%eax
 8048536:	89 45 d4             	mov    %eax,-0x2c(%ebp)
 8048539:	65 a1 14 00 00 00    	mov    %gs:0x14,%eax
 804853f:	89 45 f4             	mov    %eax,-0xc(%ebp)
 8048542:	31 c0                	xor    %eax,%eax
 8048544:	c7 45 e0 00 00 00 00 	movl   $0x0,-0x20(%ebp)
 804854b:	8b 45 d4             	mov    -0x2c(%ebp),%eax
 804854e:	89 44 24 04          	mov    %eax,0x4(%esp)
 8048552:	8d 45 e4             	lea    -0x1c(%ebp),%eax
 8048555:	89 04 24             	mov    %eax,(%esp)
 8048558:	e8 83 fe ff ff       	call   80483e0 <strcpy@plt>
 804855d:	c7 44 24 04 b0 86 04 	movl   $0x80486b0,0x4(%esp)
 8048564:	08 
 8048565:	8d 45 e4             	lea    -0x1c(%ebp),%eax
 8048568:	89 04 24             	mov    %eax,(%esp)
 804856b:	e8 40 fe ff ff       	call   80483b0 <strcmp@plt>
 8048570:	85 c0                	test   %eax,%eax
 8048572:	75 07                	jne    804857b <check_auth+0x4e>
 8048574:	c7 45 e0 01 00 00 00 	movl   $0x1,-0x20(%ebp)
 804857b:	c7 44 24 04 b9 86 04 	movl   $0x80486b9,0x4(%esp)
 8048582:	08 
 8048583:	8d 45 e4             	lea    -0x1c(%ebp),%eax
 8048586:	89 04 24             	mov    %eax,(%esp)
 8048589:	e8 22 fe ff ff       	call   80483b0 <strcmp@plt>
 804858e:	85 c0                	test   %eax,%eax
 8048590:	75 07                	jne    8048599 <check_auth+0x6c>
 8048592:	c7 45 e0 01 00 00 00 	movl   $0x1,-0x20(%ebp)
 8048599:	8b 45 e0             	mov    -0x20(%ebp),%eax
 804859c:	8b 55 f4             	mov    -0xc(%ebp),%edx
 804859f:	65 33 15 14 00 00 00 	xor    %gs:0x14,%edx
 80485a6:	74 05                	je     80485ad <check_auth+0x80>
 80485a8:	e8 23 fe ff ff       	call   80483d0 <__stack_chk_fail@plt>
 80485ad:	c9                   	leave  
 80485ae:	c3                   	ret    

080485af <main>:
 80485af:	55                   	push   %ebp
 80485b0:	89 e5                	mov    %esp,%ebp
 80485b2:	83 e4 f0             	and    $0xfffffff0,%esp
 80485b5:	83 ec 10             	sub    $0x10,%esp
 80485b8:	83 7d 08 01          	cmpl   $0x1,0x8(%ebp)
 80485bc:	7f 21                	jg     80485df <main+0x30>
 80485be:	8b 45 0c             	mov    0xc(%ebp),%eax
 80485c1:	8b 00                	mov    (%eax),%eax
 80485c3:	89 44 24 04          	mov    %eax,0x4(%esp)
 80485c7:	c7 04 24 c2 86 04 08 	movl   $0x80486c2,(%esp)
 80485ce:	e8 ed fd ff ff       	call   80483c0 <printf@plt>
 80485d3:	c7 04 24 00 00 00 00 	movl   $0x0,(%esp)
 80485da:	e8 31 fe ff ff       	call   8048410 <exit@plt>
 80485df:	c7 04 24 d8 86 04 08 	movl   $0x80486d8,(%esp)
 80485e6:	e8 05 fe ff ff       	call   80483f0 <puts@plt>
 80485eb:	8b 45 0c             	mov    0xc(%ebp),%eax
 80485ee:	83 c0 04             	add    $0x4,%eax
 80485f1:	8b 00                	mov    (%eax),%eax
 80485f3:	89 04 24             	mov    %eax,(%esp)
 80485f6:	e8 32 ff ff ff       	call   804852d <check_auth>
 80485fb:	85 c0                	test   %eax,%eax
 80485fd:	74 0e                	je     804860d <main+0x5e>
 80485ff:	c7 04 24 fe 86 04 08 	movl   $0x80486fe,(%esp)
 8048606:	e8 e5 fd ff ff       	call   80483f0 <puts@plt>
 804860b:	eb 0c                	jmp    8048619 <main+0x6a>
 804860d:	c7 04 24 18 87 04 08 	movl   $0x8048718,(%esp)
 8048614:	e8 d7 fd ff ff       	call   80483f0 <puts@plt>
 8048619:	c9                   	leave  
 804861a:	c3                   	ret    
 804861b:	66 90                	xchg   %ax,%ax
 804861d:	66 90                	xchg   %ax,%ax
 804861f:	90                   	nop

08048620 <__libc_csu_init>:
 8048620:	55                   	push   %ebp
 8048621:	57                   	push   %edi
 8048622:	31 ff                	xor    %edi,%edi
 8048624:	56                   	push   %esi
 8048625:	53                   	push   %ebx
 8048626:	e8 35 fe ff ff       	call   8048460 <__x86.get_pc_thunk.bx>
 804862b:	81 c3 d5 19 00 00    	add    $0x19d5,%ebx
 8048631:	83 ec 1c             	sub    $0x1c,%esp
 8048634:	8b 6c 24 30          	mov    0x30(%esp),%ebp
 8048638:	8d b3 0c ff ff ff    	lea    -0xf4(%ebx),%esi
 804863e:	e8 35 fd ff ff       	call   8048378 <_init>
 8048643:	8d 83 08 ff ff ff    	lea    -0xf8(%ebx),%eax
 8048649:	29 c6                	sub    %eax,%esi
 804864b:	c1 fe 02             	sar    $0x2,%esi
 804864e:	85 f6                	test   %esi,%esi
 8048650:	74 27                	je     8048679 <__libc_csu_init+0x59>
 8048652:	8d b6 00 00 00 00    	lea    0x0(%esi),%esi
 8048658:	8b 44 24 38          	mov    0x38(%esp),%eax
 804865c:	89 2c 24             	mov    %ebp,(%esp)
 804865f:	89 44 24 08          	mov    %eax,0x8(%esp)
 8048663:	8b 44 24 34          	mov    0x34(%esp),%eax
 8048667:	89 44 24 04          	mov    %eax,0x4(%esp)
 804866b:	ff 94 bb 08 ff ff ff 	call   *-0xf8(%ebx,%edi,4)
 8048672:	83 c7 01             	add    $0x1,%edi
 8048675:	39 f7                	cmp    %esi,%edi
 8048677:	75 df                	jne    8048658 <__libc_csu_init+0x38>
 8048679:	83 c4 1c             	add    $0x1c,%esp
 804867c:	5b                   	pop    %ebx
 804867d:	5e                   	pop    %esi
 804867e:	5f                   	pop    %edi
 804867f:	5d                   	pop    %ebp
 8048680:	c3                   	ret    
 8048681:	eb 0d                	jmp    8048690 <__libc_csu_fini>
 8048683:	90                   	nop
 8048684:	90                   	nop
 8048685:	90                   	nop
 8048686:	90                   	nop
 8048687:	90                   	nop
 8048688:	90                   	nop
 8048689:	90                   	nop
 804868a:	90                   	nop
 804868b:	90                   	nop
 804868c:	90                   	nop
 804868d:	90                   	nop
 804868e:	90                   	nop
 804868f:	90                   	nop

08048690 <__libc_csu_fini>:
 8048690:	f3 c3                	repz ret 

Disassembly of section .fini:

08048694 <_fini>:
 8048694:	53                   	push   %ebx
 8048695:	83 ec 08             	sub    $0x8,%esp
 8048698:	e8 c3 fd ff ff       	call   8048460 <__x86.get_pc_thunk.bx>
 804869d:	81 c3 63 19 00 00    	add    $0x1963,%ebx
 80486a3:	83 c4 08             	add    $0x8,%esp
 80486a6:	5b                   	pop    %ebx
 80486a7:	c3                   	ret    
